target datalayout = "e-m:e-p270:32:32-p271:32:32-p272:64:64-i64:64-i128:128-f80:128-n8:16:32:64-S128"
target triple = "x86_64-pc-linux-gnu"

%struct.DirStack = type { i32, ptr }

@.str.42 = private unnamed_addr constant [131 x i8] c"generated/home/dtcxzyw/WorkSpace/Projects/compilers/llvm-opt-benchmark/bench/gromacs/gromacs/src/gromacs/gmxpreprocess/topdirs.cpp\00", align 1
@.str.66 = private unnamed_addr constant [2 x i8] c"D\00", align 1

; Function Attrs: inlinehint mustprogress uwtable
define internal void @_ZL13gmx_snew_implI8DirStackEvPKcS2_iRPT_m(ptr noundef %0, ptr noundef %1, i32 noundef %2, ptr noundef nonnull align 8 dereferenceable(8) %3, i64 noundef %4) #8 {
  %6 = alloca ptr, align 8
  %7 = alloca ptr, align 8
  %8 = alloca i32, align 4
  %9 = alloca ptr, align 8
  %10 = alloca i64, align 8
  store ptr %0, ptr %6, align 8, !tbaa !8
  store ptr %1, ptr %7, align 8, !tbaa !8
  store i32 %2, ptr %8, align 4, !tbaa !13
  store ptr %3, ptr %9, align 8, !tbaa !273
  store i64 %4, ptr %10, align 8, !tbaa !20
  %11 = load ptr, ptr %6, align 8, !tbaa !8
  %12 = load ptr, ptr %7, align 8, !tbaa !8
  %13 = load i32, ptr %8, align 4, !tbaa !13
  %14 = load i64, ptr %10, align 8, !tbaa !20
  %15 = call noundef ptr @_Z11save_callocPKcS0_imm(ptr noundef %11, ptr noundef %12, i32 noundef %13, i64 noundef %14, i64 noundef 16)
  %16 = load ptr, ptr %9, align 8, !tbaa !273
  store ptr %15, ptr %16, align 8, !tbaa !275
  ret void
}

; Function Attrs: mustprogress uwtable
define void @_Z7DS_PushPP8DirStack9Directive(ptr noundef %0, i32 noundef %1) #0 {
  %3 = alloca ptr, align 8
  %4 = alloca i32, align 4
  %5 = alloca ptr, align 8
  store ptr %0, ptr %3, align 8, !tbaa !273
  store i32 %1, ptr %4, align 4, !tbaa !4
  call void @llvm.lifetime.start.p0(i64 8, ptr %5) #12
  call void @_ZL13gmx_snew_implI8DirStackEvPKcS2_iRPT_m(ptr noundef @.str.66, ptr noundef @.str.42, i32 noundef 392, ptr noundef nonnull align 8 dereferenceable(8) %5, i64 noundef 1)
  %6 = load i32, ptr %4, align 4, !tbaa !4
  %7 = load ptr, ptr %5, align 8, !tbaa !275
  %8 = getelementptr inbounds nuw %struct.DirStack, ptr %7, i32 0, i32 0
  store i32 %6, ptr %8, align 8, !tbaa !284
  %9 = load ptr, ptr %3, align 8, !tbaa !273
  %10 = load ptr, ptr %9, align 8, !tbaa !275
  %11 = load ptr, ptr %5, align 8, !tbaa !275
  %12 = getelementptr inbounds nuw %struct.DirStack, ptr %11, i32 0, i32 1
  store ptr %10, ptr %12, align 8, !tbaa !281
  %13 = load ptr, ptr %5, align 8, !tbaa !275
  %14 = load ptr, ptr %3, align 8, !tbaa !273
  store ptr %13, ptr %14, align 8, !tbaa !275
  call void @llvm.lifetime.end.p0(i64 8, ptr %5) #12
  ret void
}