; Function Attrs: mustprogress uwtable
define void @_Z7DS_PushPP8DirStack9Directive(ptr noundef captures(none) %0, i32 noundef %1) local_unnamed_addr #1 {
  %3 = tail call noundef ptr @_Z11save_callocPKcS0_imm(ptr noundef nonnull @.str.66, ptr noundef nonnull @.str.42, i32 noundef 392, i64 noundef 1, i64 noundef 16)
  store i32 %1, ptr %3, align 8, !tbaa !74
  %4 = load ptr, ptr %0, align 8, !tbaa !66
  %5 = getelementptr inbounds nuw i8, ptr %3, i64 8
  store ptr %4, ptr %5, align 8, !tbaa !71
  store ptr %3, ptr %0, align 8, !tbaa !66
  ret void
}